; Function Attrs: mustprogress nofree norecurse nosync nounwind sspstrong willreturn memory(none) uwtable
define dso_local ptr @ruby_signal_name(i32 noundef %0) local_unnamed_addr #0 {
  br label %2

2:                                                ; preds = %6, %1
  %.06.i = phi ptr [ @siglist, %1 ], [ %7, %6 ]
  %3 = getelementptr inbounds nuw i8, ptr %.06.i, i64 8
  %4 = load i32, ptr %3, align 4, !tbaa !7
  %5 = icmp eq i32 %4, %0
  br i1 %5, label %signo2signm.exit, label %6

6:                                                ; preds = %2
  %7 = getelementptr i8, ptr %.06.i, i64 12
  %8 = icmp ult ptr %7, getelementptr inbounds nuw (i8, ptr @siglist, i64 408)
  br i1 %8, label %2, label %signo2signm.exit, !llvm.loop !12

signo2signm.exit:                                 ; preds = %2, %6
  %.05.i = phi ptr [ %.06.i, %2 ], [ null, %6 ]
  ret ptr %.05.i
}